target datalayout = "e-m:e-p270:32:32-p271:32:32-p272:64:64-i64:64-i128:128-f80:128-n8:16:32:64-S128"
target triple = "x86_64-pc-linux-gnu"

%struct.ocsp_response_st = type { ptr, ptr }
%struct.ocsp_resp_bytes_st = type { ptr, ptr }

; Function Attrs: nounwind uwtable
define ptr @OCSP_response_create(i32 noundef %0, ptr noundef %1) #0 {
  %3 = alloca ptr, align 8
  %4 = alloca i32, align 4
  %5 = alloca ptr, align 8
  %6 = alloca ptr, align 8
  %7 = alloca i32, align 4
  store i32 %0, ptr %4, align 4, !tbaa !17
  store ptr %1, ptr %5, align 8, !tbaa !40
  call void @llvm.lifetime.start.p0(i64 8, ptr %6) #5
  store ptr null, ptr %6, align 8, !tbaa !42
  %8 = call ptr @OCSP_RESPONSE_new()
  store ptr %8, ptr %6, align 8, !tbaa !42
  %9 = icmp eq ptr %8, null
  br i1 %9, label %10, label %11

10:                                               ; preds = %2
  br label %48

11:                                               ; preds = %2
  %12 = load ptr, ptr %6, align 8, !tbaa !42
  %13 = getelementptr inbounds nuw %struct.ocsp_response_st, ptr %12, i32 0, i32 0
  %14 = load ptr, ptr %13, align 8, !tbaa !44
  %15 = load i32, ptr %4, align 4, !tbaa !17
  %16 = sext i32 %15 to i64
  %17 = call i32 @ASN1_ENUMERATED_set(ptr noundef %14, i64 noundef %16)
  %18 = icmp ne i32 %17, 0
  br i1 %18, label %20, label %19

19:                                               ; preds = %11
  br label %48

20:                                               ; preds = %11
  %21 = load ptr, ptr %5, align 8, !tbaa !40
  %22 = icmp ne ptr %21, null
  br i1 %22, label %25, label %23

23:                                               ; preds = %20
  %24 = load ptr, ptr %6, align 8, !tbaa !42
  store ptr %24, ptr %3, align 8
  store i32 1, ptr %7, align 4
  br label %50

25:                                               ; preds = %20
  %26 = call ptr @OCSP_RESPBYTES_new()
  %27 = load ptr, ptr %6, align 8, !tbaa !42
  %28 = getelementptr inbounds nuw %struct.ocsp_response_st, ptr %27, i32 0, i32 1
  store ptr %26, ptr %28, align 8, !tbaa !47
  %29 = icmp eq ptr %26, null
  br i1 %29, label %30, label %31

30:                                               ; preds = %25
  br label %48

31:                                               ; preds = %25
  %32 = call ptr @OBJ_nid2obj(i32 noundef 365)
  %33 = load ptr, ptr %6, align 8, !tbaa !42
  %34 = getelementptr inbounds nuw %struct.ocsp_response_st, ptr %33, i32 0, i32 1
  %35 = load ptr, ptr %34, align 8, !tbaa !47
  %36 = getelementptr inbounds nuw %struct.ocsp_resp_bytes_st, ptr %35, i32 0, i32 0
  store ptr %32, ptr %36, align 8, !tbaa !48
  %37 = load ptr, ptr %5, align 8, !tbaa !40
  %38 = call ptr @OCSP_BASICRESP_it()
  %39 = load ptr, ptr %6, align 8, !tbaa !42
  %40 = getelementptr inbounds nuw %struct.ocsp_response_st, ptr %39, i32 0, i32 1
  %41 = load ptr, ptr %40, align 8, !tbaa !47
  %42 = getelementptr inbounds nuw %struct.ocsp_resp_bytes_st, ptr %41, i32 0, i32 1
  %43 = call ptr @ASN1_item_pack(ptr noundef %37, ptr noundef %38, ptr noundef %42)
  %44 = icmp ne ptr %43, null
  br i1 %44, label %46, label %45

45:                                               ; preds = %31
  br label %48

46:                                               ; preds = %31
  %47 = load ptr, ptr %6, align 8, !tbaa !42
  store ptr %47, ptr %3, align 8
  store i32 1, ptr %7, align 4
  br label %50

48:                                               ; preds = %45, %30, %19, %10
  %49 = load ptr, ptr %6, align 8, !tbaa !42
  call void @OCSP_RESPONSE_free(ptr noundef %49)
  store ptr null, ptr %3, align 8
  store i32 1, ptr %7, align 4
  br label %50

50:                                               ; preds = %48, %46, %23
  call void @llvm.lifetime.end.p0(i64 8, ptr %6) #5
  %51 = load ptr, ptr %3, align 8
  ret ptr %51
}