; Function Attrs: nounwind uwtable
define ptr @OCSP_response_create(i32 noundef %0, ptr noundef %1) local_unnamed_addr #0 {
  %3 = tail call ptr @OCSP_RESPONSE_new() #6
  %4 = icmp eq ptr %3, null
  br i1 %4, label %21, label %5

5:                                                ; preds = %2
  %6 = load ptr, ptr %3, align 8, !tbaa !29
  %7 = sext i32 %0 to i64
  %8 = tail call i32 @ASN1_ENUMERATED_set(ptr noundef %6, i64 noundef %7) #6
  %.not = icmp eq i32 %8, 0
  br i1 %.not, label %21, label %9

9:                                                ; preds = %5
  %.not12 = icmp eq ptr %1, null
  br i1 %.not12, label %22, label %10

10:                                               ; preds = %9
  %11 = tail call ptr @OCSP_RESPBYTES_new() #6
  %12 = getelementptr inbounds nuw i8, ptr %3, i64 8
  store ptr %11, ptr %12, align 8, !tbaa !32
  %13 = icmp eq ptr %11, null
  br i1 %13, label %21, label %14

14:                                               ; preds = %10
  %15 = tail call ptr @OBJ_nid2obj(i32 noundef 365) #6
  %16 = load ptr, ptr %12, align 8, !tbaa !32
  store ptr %15, ptr %16, align 8, !tbaa !33
  %17 = tail call ptr @OCSP_BASICRESP_it() #6
  %18 = load ptr, ptr %12, align 8, !tbaa !32
  %19 = getelementptr inbounds nuw i8, ptr %18, i64 8
  %20 = tail call ptr @ASN1_item_pack(ptr noundef nonnull %1, ptr noundef %17, ptr noundef nonnull %19) #6
  %.not13 = icmp eq ptr %20, null
  br i1 %.not13, label %21, label %22

21:                                               ; preds = %14, %10, %5, %2
  tail call void @OCSP_RESPONSE_free(ptr noundef %3) #6
  br label %22

22:                                               ; preds = %14, %9, %21
  %.0 = phi ptr [ null, %21 ], [ %3, %9 ], [ %3, %14 ]
  ret ptr %.0
}